target datalayout = "e-m:e-p270:32:32-p271:32:32-p272:64:64-i64:64-i128:128-f80:128-n8:16:32:64-S128"
target triple = "x86_64-pc-linux-gnu"

%union.ufmt_args = type { i64 }
%struct.u_printf_spec_info = type { i32, i32, i16, i16, i16, i8, i8, i8, i8, i8, i8, i8, i8, i8 }
%struct.u_printf_stream_handler = type { ptr, ptr }

@_ZL8gNullStr = internal constant [7 x i16] [i16 40, i16 110, i16 117, i16 108, i16 108, i16 41, i16 0], align 2

; Function Attrs: mustprogress uwtable
define internal noundef i32 @_ZL24u_printf_ustring_handlerPK23u_printf_stream_handlerPvP13ULocaleBundlePK18u_printf_spec_infoPK9ufmt_args(ptr noundef %0, ptr noundef %1, ptr noundef %2, ptr noundef %3, ptr noundef %4) #0 {
  %6 = alloca ptr, align 8
  %7 = alloca ptr, align 8
  %8 = alloca ptr, align 8
  %9 = alloca ptr, align 8
  %10 = alloca ptr, align 8
  %11 = alloca i32, align 4
  %12 = alloca i32, align 4
  %13 = alloca ptr, align 8
  store ptr %0, ptr %6, align 8, !tbaa !3
  store ptr %1, ptr %7, align 8, !tbaa !10
  store ptr %2, ptr %8, align 8, !tbaa !13
  store ptr %3, ptr %9, align 8, !tbaa !19
  store ptr %4, ptr %10, align 8, !tbaa !21
  call void @llvm.lifetime.start.p0(i64 4, ptr %11) #9
  call void @llvm.lifetime.start.p0(i64 4, ptr %12) #9
  call void @llvm.lifetime.start.p0(i64 8, ptr %13) #9
  %14 = load ptr, ptr %10, align 8, !tbaa !21
  %15 = getelementptr inbounds %union.ufmt_args, ptr %14, i64 0
  %16 = load ptr, ptr %15, align 8, !tbaa !69
  store ptr %16, ptr %13, align 8, !tbaa !8
  %17 = load ptr, ptr %13, align 8, !tbaa !8
  %18 = icmp eq ptr %17, null
  br i1 %18, label %19, label %20

19:                                               ; preds = %5
  store ptr @_ZL8gNullStr, ptr %13, align 8, !tbaa !8
  br label %20

20:                                               ; preds = %19, %5
  %21 = load ptr, ptr %13, align 8, !tbaa !8
  %22 = call i32 @u_strlen_77(ptr noundef %21)
  store i32 %22, ptr %11, align 4, !tbaa !36
  %23 = load ptr, ptr %9, align 8, !tbaa !19
  %24 = getelementptr inbounds nuw %struct.u_printf_spec_info, ptr %23, i32 0, i32 0
  %25 = load i32, ptr %24, align 4, !tbaa !42
  %26 = icmp ne i32 %25, -1
  br i1 %26, label %27, label %37

27:                                               ; preds = %20
  %28 = load ptr, ptr %9, align 8, !tbaa !19
  %29 = getelementptr inbounds nuw %struct.u_printf_spec_info, ptr %28, i32 0, i32 0
  %30 = load i32, ptr %29, align 4, !tbaa !42
  %31 = load i32, ptr %11, align 4, !tbaa !36
  %32 = icmp slt i32 %30, %31
  br i1 %32, label %33, label %37

33:                                               ; preds = %27
  %34 = load ptr, ptr %9, align 8, !tbaa !19
  %35 = getelementptr inbounds nuw %struct.u_printf_spec_info, ptr %34, i32 0, i32 0
  %36 = load i32, ptr %35, align 4, !tbaa !42
  store i32 %36, ptr %11, align 4, !tbaa !36
  br label %37

37:                                               ; preds = %33, %27, %20
  %38 = load ptr, ptr %6, align 8, !tbaa !3
  %39 = getelementptr inbounds nuw %struct.u_printf_stream_handler, ptr %38, i32 0, i32 1
  %40 = load ptr, ptr %39, align 8, !tbaa !85
  %41 = load ptr, ptr %7, align 8, !tbaa !10
  %42 = load ptr, ptr %9, align 8, !tbaa !19
  %43 = load ptr, ptr %13, align 8, !tbaa !8
  %44 = load i32, ptr %11, align 4, !tbaa !36
  %45 = call noundef i32 %40(ptr noundef %41, ptr noundef %42, ptr noundef %43, i32 noundef %44)
  store i32 %45, ptr %12, align 4, !tbaa !36
  %46 = load i32, ptr %12, align 4, !tbaa !36
  call void @llvm.lifetime.end.p0(i64 8, ptr %13) #9
  call void @llvm.lifetime.end.p0(i64 4, ptr %12) #9
  call void @llvm.lifetime.end.p0(i64 4, ptr %11) #9
  ret i32 %46
}