; Function Attrs: mustprogress uwtable
define internal noundef i32 @_ZL24u_printf_ustring_handlerPK23u_printf_stream_handlerPvP13ULocaleBundlePK18u_printf_spec_infoPK9ufmt_args(ptr noundef readonly captures(none) %0, ptr noundef %1, ptr readnone captures(none) %2, ptr noundef %3, ptr noundef readonly captures(none) %4) #0 {
  %6 = load ptr, ptr %4, align 8, !tbaa !20
  %7 = icmp eq ptr %6, null
  %spec.store.select = select i1 %7, ptr @_ZL8gNullStr, ptr %6
  %8 = tail call i32 @u_strlen_77(ptr noundef nonnull %spec.store.select)
  %9 = load i32, ptr %3, align 4, !tbaa !42
  %.not.not = icmp eq i32 %9, -1
  %10 = tail call i32 @llvm.smin.i32(i32 %9, i32 %8)
  %.0 = select i1 %.not.not, i32 %8, i32 %10
  %11 = getelementptr inbounds nuw i8, ptr %0, i64 8
  %12 = load ptr, ptr %11, align 8, !tbaa !64
  %13 = tail call noundef i32 %12(ptr noundef %1, ptr noundef nonnull %3, ptr noundef nonnull %spec.store.select, i32 noundef %.0)
  ret i32 %13
}